target datalayout = "e-m:e-p270:32:32-p271:32:32-p272:64:64-i64:64-i128:128-f80:128-n8:16:32:64-S128"
target triple = "x86_64-pc-linux-gnu"

%struct.ILookInStream = type { ptr, ptr, ptr, ptr }
%struct.CLookToRead = type { %struct.ILookInStream, ptr, i64, i64, [16384 x i8] }
%struct.ISeekInStream = type { ptr, ptr, i64 }

; Function Attrs: nounwind uwtable
define internal i32 @LookToRead_Look_Lookahead(ptr noundef %0, ptr noundef %1, ptr noundef %2) #0 {
  %4 = alloca ptr, align 8
  %5 = alloca ptr, align 8
  %6 = alloca ptr, align 8
  %7 = alloca i32, align 4
  %8 = alloca ptr, align 8
  %9 = alloca i64, align 8
  store ptr %0, ptr %4, align 8, !tbaa !3
  store ptr %1, ptr %5, align 8, !tbaa !3
  store ptr %2, ptr %6, align 8, !tbaa !19
  call void @llvm.lifetime.start.p0(i64 4, ptr %7) #3
  store i32 0, ptr %7, align 4, !tbaa !9
  call void @llvm.lifetime.start.p0(i64 8, ptr %8) #3
  %10 = load ptr, ptr %4, align 8, !tbaa !3
  store ptr %10, ptr %8, align 8, !tbaa !3
  call void @llvm.lifetime.start.p0(i64 8, ptr %9) #3
  %11 = load ptr, ptr %8, align 8, !tbaa !3
  %12 = getelementptr inbounds nuw %struct.CLookToRead, ptr %11, i32 0, i32 3
  %13 = load i64, ptr %12, align 8, !tbaa !29
  %14 = load ptr, ptr %8, align 8, !tbaa !3
  %15 = getelementptr inbounds nuw %struct.CLookToRead, ptr %14, i32 0, i32 2
  %16 = load i64, ptr %15, align 8, !tbaa !30
  %17 = sub i64 %13, %16
  store i64 %17, ptr %9, align 8, !tbaa !7
  %18 = load i64, ptr %9, align 8, !tbaa !7
  %19 = icmp eq i64 %18, 0
  br i1 %19, label %20, label %42

20:                                               ; preds = %3
  %21 = load ptr, ptr %6, align 8, !tbaa !19
  %22 = load i64, ptr %21, align 8, !tbaa !7
  %23 = icmp ugt i64 %22, 0
  br i1 %23, label %24, label %42

24:                                               ; preds = %20
  %25 = load ptr, ptr %8, align 8, !tbaa !3
  %26 = getelementptr inbounds nuw %struct.CLookToRead, ptr %25, i32 0, i32 2
  store i64 0, ptr %26, align 8, !tbaa !30
  store i64 16384, ptr %9, align 8, !tbaa !7
  %27 = load ptr, ptr %8, align 8, !tbaa !3
  %28 = getelementptr inbounds nuw %struct.CLookToRead, ptr %27, i32 0, i32 1
  %29 = load ptr, ptr %28, align 8, !tbaa !31
  %30 = getelementptr inbounds nuw %struct.ISeekInStream, ptr %29, i32 0, i32 0
  %31 = load ptr, ptr %30, align 8, !tbaa !32
  %32 = load ptr, ptr %8, align 8, !tbaa !3
  %33 = getelementptr inbounds nuw %struct.CLookToRead, ptr %32, i32 0, i32 1
  %34 = load ptr, ptr %33, align 8, !tbaa !31
  %35 = load ptr, ptr %8, align 8, !tbaa !3
  %36 = getelementptr inbounds nuw %struct.CLookToRead, ptr %35, i32 0, i32 4
  %37 = getelementptr inbounds [16384 x i8], ptr %36, i64 0, i64 0
  %38 = call i32 %31(ptr noundef %34, ptr noundef %37, ptr noundef %9)
  store i32 %38, ptr %7, align 4, !tbaa !9
  %39 = load i64, ptr %9, align 8, !tbaa !7
  %40 = load ptr, ptr %8, align 8, !tbaa !3
  %41 = getelementptr inbounds nuw %struct.CLookToRead, ptr %40, i32 0, i32 3
  store i64 %39, ptr %41, align 8, !tbaa !29
  br label %42

42:                                               ; preds = %24, %20, %3
  %43 = load i64, ptr %9, align 8, !tbaa !7
  %44 = load ptr, ptr %6, align 8, !tbaa !19
  %45 = load i64, ptr %44, align 8, !tbaa !7
  %46 = icmp ult i64 %43, %45
  br i1 %46, label %47, label %50

47:                                               ; preds = %42
  %48 = load i64, ptr %9, align 8, !tbaa !7
  %49 = load ptr, ptr %6, align 8, !tbaa !19
  store i64 %48, ptr %49, align 8, !tbaa !7
  br label %50

50:                                               ; preds = %47, %42
  %51 = load ptr, ptr %8, align 8, !tbaa !3
  %52 = getelementptr inbounds nuw %struct.CLookToRead, ptr %51, i32 0, i32 4
  %53 = getelementptr inbounds [16384 x i8], ptr %52, i64 0, i64 0
  %54 = load ptr, ptr %8, align 8, !tbaa !3
  %55 = getelementptr inbounds nuw %struct.CLookToRead, ptr %54, i32 0, i32 2
  %56 = load i64, ptr %55, align 8, !tbaa !30
  %57 = getelementptr inbounds nuw i8, ptr %53, i64 %56
  %58 = load ptr, ptr %5, align 8, !tbaa !3
  store ptr %57, ptr %58, align 8, !tbaa !3
  %59 = load i32, ptr %7, align 4, !tbaa !9
  call void @llvm.lifetime.end.p0(i64 8, ptr %9) #3
  call void @llvm.lifetime.end.p0(i64 8, ptr %8) #3
  call void @llvm.lifetime.end.p0(i64 4, ptr %7) #3
  ret i32 %59
}