; Function Attrs: nounwind uwtable
define internal i32 @LookToRead_Look_Lookahead(ptr noundef %0, ptr noundef writeonly captures(none) initializes((0, 8)) %1, ptr noundef captures(none) %2) #0 {
  %4 = alloca i64, align 8
  call void @llvm.lifetime.start.p0(i64 8, ptr nonnull %4) #7
  %5 = getelementptr inbounds nuw i8, ptr %0, i64 48
  %6 = load i64, ptr %5, align 8, !tbaa !23
  %7 = getelementptr inbounds nuw i8, ptr %0, i64 40
  %8 = load i64, ptr %7, align 8, !tbaa !24
  %9 = sub i64 %6, %8
  %10 = icmp eq i64 %6, %8
  %.pre15 = load i64, ptr %2, align 8, !tbaa !3
  br i1 %10, label %11, label %19

11:                                               ; preds = %3
  %.not = icmp eq i64 %.pre15, 0
  br i1 %.not, label %.thread, label %12

12:                                               ; preds = %11
  store i64 0, ptr %7, align 8, !tbaa !24
  store i64 16384, ptr %4, align 8, !tbaa !3
  %13 = getelementptr inbounds nuw i8, ptr %0, i64 32
  %14 = load ptr, ptr %13, align 8, !tbaa !25
  %15 = load ptr, ptr %14, align 8, !tbaa !26
  %16 = getelementptr inbounds nuw i8, ptr %0, i64 56
  %17 = call i32 %15(ptr noundef nonnull %14, ptr noundef nonnull %16, ptr noundef nonnull %4) #7
  %18 = load i64, ptr %4, align 8, !tbaa !3
  store i64 %18, ptr %5, align 8, !tbaa !23
  %.pre = load i64, ptr %2, align 8, !tbaa !3
  br label %19

19:                                               ; preds = %12, %3
  %20 = phi i64 [ %.pre, %12 ], [ %.pre15, %3 ]
  %21 = phi i64 [ %18, %12 ], [ %9, %3 ]
  %.0 = phi i32 [ %17, %12 ], [ 0, %3 ]
  %22 = icmp ult i64 %21, %20
  br i1 %22, label %23, label %.thread

23:                                               ; preds = %19
  store i64 %21, ptr %2, align 8, !tbaa !3
  br label %.thread

.thread:                                          ; preds = %11, %23, %19
  %.017 = phi i32 [ %.0, %23 ], [ %.0, %19 ], [ 0, %11 ]
  %24 = getelementptr inbounds nuw i8, ptr %0, i64 56
  %25 = load i64, ptr %7, align 8, !tbaa !24
  %26 = getelementptr inbounds nuw i8, ptr %24, i64 %25
  store ptr %26, ptr %1, align 8, !tbaa !15
  call void @llvm.lifetime.end.p0(i64 8, ptr nonnull %4) #7
  ret i32 %.017
}